target datalayout = "e-m:e-p270:32:32-p271:32:32-p272:64:64-i64:64-i128:128-f80:128-n8:16:32:64-S128"
target triple = "x86_64-pc-linux-gnu"

%struct.SDL_FRect = type { float, float, float, float }

@.str = private unnamed_addr constant [26 x i8] c"Parameter '%s' is invalid\00", align 1
@.str.6 = private unnamed_addr constant [2 x i8] c"A\00", align 1
@.str.7 = private unnamed_addr constant [2 x i8] c"B\00", align 1
@.str.8 = private unnamed_addr constant [29 x i8] c"Potential rect math overflow\00", align 1
@.str.9 = private unnamed_addr constant [7 x i8] c"result\00", align 1

; Function Attrs: alwaysinline nounwind uwtable
define internal zeroext i1 @SDL_RectEmptyFloat(ptr noundef %0) #3 {
  %2 = alloca ptr, align 8
  store ptr %0, ptr %2, align 8
  %3 = load ptr, ptr %2, align 8
  %4 = icmp ne ptr %3, null
  br i1 %4, label %5, label %15

5:                                                ; preds = %1
  %6 = load ptr, ptr %2, align 8
  %7 = getelementptr inbounds nuw %struct.SDL_FRect, ptr %6, i32 0, i32 2
  %8 = load float, ptr %7, align 4
  %9 = fcmp olt float %8, 0.000000e+00
  br i1 %9, label %15, label %10

10:                                               ; preds = %5
  %11 = load ptr, ptr %2, align 8
  %12 = getelementptr inbounds nuw %struct.SDL_FRect, ptr %11, i32 0, i32 3
  %13 = load float, ptr %12, align 4
  %14 = fcmp olt float %13, 0.000000e+00
  br label %15

15:                                               ; preds = %10, %5, %1
  %16 = phi i1 [ true, %5 ], [ true, %1 ], [ %14, %10 ]
  %17 = select i1 %16, i32 1, i32 0
  %18 = icmp ne i32 %17, 0
  ret i1 %18
}

; Function Attrs: nounwind uwtable
define internal zeroext i1 @SDL_RectCanOverflowFloat(ptr noundef %0) #0 {
  %2 = alloca i1, align 1
  %3 = alloca ptr, align 8
  store ptr %0, ptr %3, align 8
  %4 = load ptr, ptr %3, align 8
  %5 = getelementptr inbounds nuw %struct.SDL_FRect, ptr %4, i32 0, i32 0
  %6 = load float, ptr %5, align 4
  %7 = fcmp ole float %6, 0xC1D0000000000000
  br i1 %7, label %33, label %8

8:                                                ; preds = %1
  %9 = load ptr, ptr %3, align 8
  %10 = getelementptr inbounds nuw %struct.SDL_FRect, ptr %9, i32 0, i32 0
  %11 = load float, ptr %10, align 4
  %12 = fcmp oge float %11, 0x41D0000000000000
  br i1 %12, label %33, label %13

13:                                               ; preds = %8
  %14 = load ptr, ptr %3, align 8
  %15 = getelementptr inbounds nuw %struct.SDL_FRect, ptr %14, i32 0, i32 1
  %16 = load float, ptr %15, align 4
  %17 = fcmp ole float %16, 0xC1D0000000000000
  br i1 %17, label %33, label %18

18:                                               ; preds = %13
  %19 = load ptr, ptr %3, align 8
  %20 = getelementptr inbounds nuw %struct.SDL_FRect, ptr %19, i32 0, i32 1
  %21 = load float, ptr %20, align 4
  %22 = fcmp oge float %21, 0x41D0000000000000
  br i1 %22, label %33, label %23

23:                                               ; preds = %18
  %24 = load ptr, ptr %3, align 8
  %25 = getelementptr inbounds nuw %struct.SDL_FRect, ptr %24, i32 0, i32 2
  %26 = load float, ptr %25, align 4
  %27 = fcmp oge float %26, 0x41D0000000000000
  br i1 %27, label %33, label %28

28:                                               ; preds = %23
  %29 = load ptr, ptr %3, align 8
  %30 = getelementptr inbounds nuw %struct.SDL_FRect, ptr %29, i32 0, i32 3
  %31 = load float, ptr %30, align 4
  %32 = fcmp oge float %31, 0x41D0000000000000
  br i1 %32, label %33, label %34

33:                                               ; preds = %28, %23, %18, %13, %8, %1
  store i1 true, ptr %2, align 1
  br label %35

34:                                               ; preds = %28
  store i1 false, ptr %2, align 1
  br label %35

35:                                               ; preds = %34, %33
  %36 = load i1, ptr %2, align 1
  ret i1 %36
}

; Function Attrs: nounwind uwtable
define hidden zeroext i1 @SDL_GetRectUnionFloat_REAL(ptr noundef %0, ptr noundef %1, ptr noundef %2) #0 {
  %4 = alloca i1, align 1
  %5 = alloca ptr, align 8
  %6 = alloca ptr, align 8
  %7 = alloca ptr, align 8
  %8 = alloca float, align 4
  %9 = alloca float, align 4
  %10 = alloca float, align 4
  %11 = alloca float, align 4
  %12 = alloca i32, align 4
  store ptr %0, ptr %5, align 8
  store ptr %1, ptr %6, align 8
  store ptr %2, ptr %7, align 8
  call void @llvm.lifetime.start.p0(i64 4, ptr %8) #6
  call void @llvm.lifetime.start.p0(i64 4, ptr %9) #6
  call void @llvm.lifetime.start.p0(i64 4, ptr %10) #6
  call void @llvm.lifetime.start.p0(i64 4, ptr %11) #6
  %13 = load ptr, ptr %5, align 8
  %14 = icmp ne ptr %13, null
  br i1 %14, label %17, label %15

15:                                               ; preds = %3
  %16 = call zeroext i1 (ptr, ...) @SDL_SetError_REAL(ptr noundef @.str, ptr noundef @.str.6)
  store i1 %16, ptr %4, align 1
  store i32 1, ptr %12, align 4
  br label %131

17:                                               ; preds = %3
  %18 = load ptr, ptr %6, align 8
  %19 = icmp ne ptr %18, null
  br i1 %19, label %22, label %20

20:                                               ; preds = %17
  %21 = call zeroext i1 (ptr, ...) @SDL_SetError_REAL(ptr noundef @.str, ptr noundef @.str.7)
  store i1 %21, ptr %4, align 1
  store i32 1, ptr %12, align 4
  br label %131

22:                                               ; preds = %17
  %23 = load ptr, ptr %5, align 8
  %24 = call zeroext i1 @SDL_RectCanOverflowFloat(ptr noundef %23)
  br i1 %24, label %28, label %25

25:                                               ; preds = %22
  %26 = load ptr, ptr %6, align 8
  %27 = call zeroext i1 @SDL_RectCanOverflowFloat(ptr noundef %26)
  br i1 %27, label %28, label %30

28:                                               ; preds = %25, %22
  %29 = call zeroext i1 (ptr, ...) @SDL_SetError_REAL(ptr noundef @.str.8)
  store i1 %29, ptr %4, align 1
  store i32 1, ptr %12, align 4
  br label %131

30:                                               ; preds = %25
  %31 = load ptr, ptr %7, align 8
  %32 = icmp ne ptr %31, null
  br i1 %32, label %35, label %33

33:                                               ; preds = %30
  %34 = call zeroext i1 (ptr, ...) @SDL_SetError_REAL(ptr noundef @.str, ptr noundef @.str.9)
  store i1 %34, ptr %4, align 1
  store i32 1, ptr %12, align 4
  br label %131

35:                                               ; preds = %30
  %36 = load ptr, ptr %5, align 8
  %37 = call zeroext i1 @SDL_RectEmptyFloat(ptr noundef %36)
  br i1 %37, label %38, label %47

38:                                               ; preds = %35
  %39 = load ptr, ptr %6, align 8
  %40 = call zeroext i1 @SDL_RectEmptyFloat(ptr noundef %39)
  br i1 %40, label %41, label %43

41:                                               ; preds = %38
  %42 = load ptr, ptr %7, align 8
  call void @llvm.memset.p0.i64(ptr align 4 %42, i8 0, i64 16, i1 false)
  br label %46

43:                                               ; preds = %38
  %44 = load ptr, ptr %7, align 8
  %45 = load ptr, ptr %6, align 8
  call void @llvm.memcpy.p0.p0.i64(ptr align 4 %44, ptr align 4 %45, i64 16, i1 false)
  br label %46

46:                                               ; preds = %43, %41
  store i1 true, ptr %4, align 1
  store i32 1, ptr %12, align 4
  br label %131

47:                                               ; preds = %35
  %48 = load ptr, ptr %6, align 8
  %49 = call zeroext i1 @SDL_RectEmptyFloat(ptr noundef %48)
  br i1 %49, label %50, label %53

50:                                               ; preds = %47
  %51 = load ptr, ptr %7, align 8
  %52 = load ptr, ptr %5, align 8
  call void @llvm.memcpy.p0.p0.i64(ptr align 4 %51, ptr align 4 %52, i64 16, i1 false)
  store i1 true, ptr %4, align 1
  store i32 1, ptr %12, align 4
  br label %131

53:                                               ; preds = %47
  br label %54

54:                                               ; preds = %53
  br label %55

55:                                               ; preds = %54
  br label %56

56:                                               ; preds = %55
  br label %57

57:                                               ; preds = %56
  br label %58

58:                                               ; preds = %57
  %59 = load ptr, ptr %5, align 8
  %60 = getelementptr inbounds nuw %struct.SDL_FRect, ptr %59, i32 0, i32 0
  %61 = load float, ptr %60, align 4
  store float %61, ptr %8, align 4
  %62 = load float, ptr %8, align 4
  %63 = load ptr, ptr %5, align 8
  %64 = getelementptr inbounds nuw %struct.SDL_FRect, ptr %63, i32 0, i32 2
  %65 = load float, ptr %64, align 4
  %66 = fadd float %62, %65
  store float %66, ptr %9, align 4
  %67 = load ptr, ptr %6, align 8
  %68 = getelementptr inbounds nuw %struct.SDL_FRect, ptr %67, i32 0, i32 0
  %69 = load float, ptr %68, align 4
  store float %69, ptr %10, align 4
  %70 = load float, ptr %10, align 4
  %71 = load ptr, ptr %6, align 8
  %72 = getelementptr inbounds nuw %struct.SDL_FRect, ptr %71, i32 0, i32 2
  %73 = load float, ptr %72, align 4
  %74 = fadd float %70, %73
  store float %74, ptr %11, align 4
  %75 = load float, ptr %10, align 4
  %76 = load float, ptr %8, align 4
  %77 = fcmp olt float %75, %76
  br i1 %77, label %78, label %80

78:                                               ; preds = %58
  %79 = load float, ptr %10, align 4
  store float %79, ptr %8, align 4
  br label %80

80:                                               ; preds = %78, %58
  %81 = load float, ptr %8, align 4
  %82 = load ptr, ptr %7, align 8
  %83 = getelementptr inbounds nuw %struct.SDL_FRect, ptr %82, i32 0, i32 0
  store float %81, ptr %83, align 4
  %84 = load float, ptr %11, align 4
  %85 = load float, ptr %9, align 4
  %86 = fcmp ogt float %84, %85
  br i1 %86, label %87, label %89

87:                                               ; preds = %80
  %88 = load float, ptr %11, align 4
  store float %88, ptr %9, align 4
  br label %89

89:                                               ; preds = %87, %80
  %90 = load float, ptr %9, align 4
  %91 = load float, ptr %8, align 4
  %92 = fsub float %90, %91
  %93 = load ptr, ptr %7, align 8
  %94 = getelementptr inbounds nuw %struct.SDL_FRect, ptr %93, i32 0, i32 2
  store float %92, ptr %94, align 4
  %95 = load ptr, ptr %5, align 8
  %96 = getelementptr inbounds nuw %struct.SDL_FRect, ptr %95, i32 0, i32 1
  %97 = load float, ptr %96, align 4
  store float %97, ptr %8, align 4
  %98 = load float, ptr %8, align 4
  %99 = load ptr, ptr %5, align 8
  %100 = getelementptr inbounds nuw %struct.SDL_FRect, ptr %99, i32 0, i32 3
  %101 = load float, ptr %100, align 4
  %102 = fadd float %98, %101
  store float %102, ptr %9, align 4
  %103 = load ptr, ptr %6, align 8
  %104 = getelementptr inbounds nuw %struct.SDL_FRect, ptr %103, i32 0, i32 1
  %105 = load float, ptr %104, align 4
  store float %105, ptr %10, align 4
  %106 = load float, ptr %10, align 4
  %107 = load ptr, ptr %6, align 8
  %108 = getelementptr inbounds nuw %struct.SDL_FRect, ptr %107, i32 0, i32 3
  %109 = load float, ptr %108, align 4
  %110 = fadd float %106, %109
  store float %110, ptr %11, align 4
  %111 = load float, ptr %10, align 4
  %112 = load float, ptr %8, align 4
  %113 = fcmp olt float %111, %112
  br i1 %113, label %114, label %116

114:                                              ; preds = %89
  %115 = load float, ptr %10, align 4
  store float %115, ptr %8, align 4
  br label %116

116:                                              ; preds = %114, %89
  %117 = load float, ptr %8, align 4
  %118 = load ptr, ptr %7, align 8
  %119 = getelementptr inbounds nuw %struct.SDL_FRect, ptr %118, i32 0, i32 1
  store float %117, ptr %119, align 4
  %120 = load float, ptr %11, align 4
  %121 = load float, ptr %9, align 4
  %122 = fcmp ogt float %120, %121
  br i1 %122, label %123, label %125

123:                                              ; preds = %116
  %124 = load float, ptr %11, align 4
  store float %124, ptr %9, align 4
  br label %125

125:                                              ; preds = %123, %116
  %126 = load float, ptr %9, align 4
  %127 = load float, ptr %8, align 4
  %128 = fsub float %126, %127
  %129 = load ptr, ptr %7, align 8
  %130 = getelementptr inbounds nuw %struct.SDL_FRect, ptr %129, i32 0, i32 3
  store float %128, ptr %130, align 4
  store i1 true, ptr %4, align 1
  store i32 1, ptr %12, align 4
  br label %131

131:                                              ; preds = %125, %50, %46, %33, %28, %20, %15
  call void @llvm.lifetime.end.p0(i64 4, ptr %11) #6
  call void @llvm.lifetime.end.p0(i64 4, ptr %10) #6
  call void @llvm.lifetime.end.p0(i64 4, ptr %9) #6
  call void @llvm.lifetime.end.p0(i64 4, ptr %8) #6
  %132 = load i1, ptr %4, align 1
  ret i1 %132
}