; Function Attrs: nounwind uwtable
define hidden zeroext i1 @SDL_GetRectUnionFloat_REAL(ptr noundef readonly captures(address_is_null) %0, ptr noundef readonly captures(address_is_null) %1, ptr noundef writeonly captures(address_is_null) %2) local_unnamed_addr #0 {
  %.not = icmp eq ptr %0, null
  br i1 %.not, label %4, label %6

4:                                                ; preds = %3
  %5 = tail call zeroext i1 (ptr, ...) @SDL_SetError_REAL(ptr noundef nonnull @.str, ptr noundef nonnull @.str.6) #5
  br label %66

6:                                                ; preds = %3
  %.not62 = icmp eq ptr %1, null
  br i1 %.not62, label %7, label %9

7:                                                ; preds = %6
  %8 = tail call zeroext i1 (ptr, ...) @SDL_SetError_REAL(ptr noundef nonnull @.str, ptr noundef nonnull @.str.7) #5
  br label %66

9:                                                ; preds = %6
  %10 = load float, ptr %0, align 4
  %11 = tail call float @llvm.fabs.f32(float %10)
  %or.cond.i = fcmp ult float %11, 0x41D0000000000000
  br i1 %or.cond.i, label %12, label %SDL_RectCanOverflowFloat.exit.thread

12:                                               ; preds = %9
  %13 = getelementptr inbounds nuw i8, ptr %0, i64 4
  %14 = load float, ptr %13, align 4
  %15 = tail call float @llvm.fabs.f32(float %14)
  %or.cond9.i = fcmp ult float %15, 0x41D0000000000000
  br i1 %or.cond9.i, label %16, label %SDL_RectCanOverflowFloat.exit.thread

16:                                               ; preds = %12
  %17 = getelementptr inbounds nuw i8, ptr %0, i64 8
  %18 = load float, ptr %17, align 4
  %19 = fcmp ult float %18, 0x41D0000000000000
  br i1 %19, label %20, label %SDL_RectCanOverflowFloat.exit.thread

20:                                               ; preds = %16
  %21 = getelementptr inbounds nuw i8, ptr %0, i64 12
  %22 = load float, ptr %21, align 4
  %23 = fcmp ult float %22, 0x41D0000000000000
  br i1 %23, label %SDL_RectCanOverflowFloat.exit, label %SDL_RectCanOverflowFloat.exit.thread

SDL_RectCanOverflowFloat.exit:                    ; preds = %20
  %24 = load float, ptr %1, align 4
  %25 = tail call float @llvm.fabs.f32(float %24)
  %or.cond.i66 = fcmp ult float %25, 0x41D0000000000000
  br i1 %or.cond.i66, label %26, label %SDL_RectCanOverflowFloat.exit.thread

26:                                               ; preds = %SDL_RectCanOverflowFloat.exit
  %27 = getelementptr inbounds nuw i8, ptr %1, i64 4
  %28 = load float, ptr %27, align 4
  %29 = tail call float @llvm.fabs.f32(float %28)
  %or.cond9.i68 = fcmp ult float %29, 0x41D0000000000000
  br i1 %or.cond9.i68, label %30, label %SDL_RectCanOverflowFloat.exit.thread

30:                                               ; preds = %26
  %31 = getelementptr inbounds nuw i8, ptr %1, i64 8
  %32 = load float, ptr %31, align 4
  %33 = fcmp ult float %32, 0x41D0000000000000
  br i1 %33, label %34, label %SDL_RectCanOverflowFloat.exit.thread

34:                                               ; preds = %30
  %35 = getelementptr inbounds nuw i8, ptr %1, i64 12
  %36 = load float, ptr %35, align 4
  %37 = fcmp ult float %36, 0x41D0000000000000
  br i1 %37, label %SDL_RectCanOverflowFloat.exit69, label %SDL_RectCanOverflowFloat.exit.thread

SDL_RectCanOverflowFloat.exit.thread:             ; preds = %SDL_RectCanOverflowFloat.exit, %26, %30, %34, %9, %12, %16, %20
  %38 = tail call zeroext i1 (ptr, ...) @SDL_SetError_REAL(ptr noundef nonnull @.str.8) #5
  br label %66

SDL_RectCanOverflowFloat.exit69:                  ; preds = %34
  %.not63 = icmp eq ptr %2, null
  br i1 %.not63, label %39, label %41

39:                                               ; preds = %SDL_RectCanOverflowFloat.exit69
  %40 = tail call zeroext i1 (ptr, ...) @SDL_SetError_REAL(ptr noundef nonnull @.str, ptr noundef nonnull @.str.9) #5
  br label %66

41:                                               ; preds = %SDL_RectCanOverflowFloat.exit69
  %42 = fcmp olt float %18, 0.000000e+00
  %43 = fcmp olt float %22, 0.000000e+00
  %or.cond = or i1 %42, %43
  %44 = fcmp olt float %32, 0.000000e+00
  %45 = fcmp olt float %36, 0.000000e+00
  %or.cond72 = or i1 %44, %45
  br i1 %or.cond, label %SDL_RectEmptyFloat.exit65.thread, label %47

SDL_RectEmptyFloat.exit65.thread:                 ; preds = %41
  br i1 %or.cond72, label %SDL_RectEmptyFloat.exit64.thread, label %46

SDL_RectEmptyFloat.exit64.thread:                 ; preds = %SDL_RectEmptyFloat.exit65.thread
  tail call void @llvm.memset.p0.i64(ptr noundef nonnull align 4 dereferenceable(16) %2, i8 0, i64 16, i1 false)
  br label %66

46:                                               ; preds = %SDL_RectEmptyFloat.exit65.thread
  tail call void @llvm.memcpy.p0.p0.i64(ptr noundef nonnull align 4 dereferenceable(16) %2, ptr noundef nonnull align 4 dereferenceable(16) %1, i64 16, i1 false)
  br label %66

47:                                               ; preds = %41
  br i1 %or.cond72, label %SDL_RectEmptyFloat.exit.thread, label %48

SDL_RectEmptyFloat.exit.thread:                   ; preds = %47
  tail call void @llvm.memcpy.p0.p0.i64(ptr noundef nonnull align 4 dereferenceable(16) %2, ptr noundef nonnull align 4 dereferenceable(16) %0, i64 16, i1 false)
  br label %66

48:                                               ; preds = %47
  %49 = fadd float %10, %18
  %50 = fadd float %24, %32
  %51 = fcmp olt float %24, %10
  %.048 = select i1 %51, float %24, float %10
  store float %.048, ptr %2, align 4
  %52 = fcmp ogt float %50, %49
  %.0 = select i1 %52, float %50, float %49
  %53 = fsub float %.0, %.048
  %54 = getelementptr inbounds nuw i8, ptr %2, i64 8
  store float %53, ptr %54, align 4
  %55 = load float, ptr %13, align 4
  %56 = load float, ptr %21, align 4
  %57 = fadd float %55, %56
  %58 = load float, ptr %27, align 4
  %59 = load float, ptr %35, align 4
  %60 = fadd float %58, %59
  %61 = fcmp olt float %58, %55
  %.149 = select i1 %61, float %58, float %55
  %62 = getelementptr inbounds nuw i8, ptr %2, i64 4
  store float %.149, ptr %62, align 4
  %63 = fcmp ogt float %60, %57
  %.1 = select i1 %63, float %60, float %57
  %64 = fsub float %.1, %.149
  %65 = getelementptr inbounds nuw i8, ptr %2, i64 12
  store float %64, ptr %65, align 4
  br label %66

66:                                               ; preds = %SDL_RectEmptyFloat.exit64.thread, %46, %48, %SDL_RectEmptyFloat.exit.thread, %39, %SDL_RectCanOverflowFloat.exit.thread, %7, %4
  %.050 = phi i1 [ %38, %SDL_RectCanOverflowFloat.exit.thread ], [ true, %SDL_RectEmptyFloat.exit.thread ], [ true, %48 ], [ %40, %39 ], [ %8, %7 ], [ %5, %4 ], [ true, %46 ], [ true, %SDL_RectEmptyFloat.exit64.thread ]
  ret i1 %.050
}